; Function Attrs: mustprogress uwtable
define hidden range(i32 -16, 1) i32 @mbedtls_mpi_grow(ptr noundef captures(none) %0, i64 noundef %1) local_unnamed_addr #1 {
  %3 = icmp ugt i64 %1, 10000
  br i1 %3, label %18, label %4

4:                                                ; preds = %2
  %5 = getelementptr inbounds nuw i8, ptr %0, i64 8
  %6 = load i64, ptr %5, align 8, !tbaa !12
  %7 = icmp ult i64 %6, %1
  br i1 %7, label %8, label %18

8:                                                ; preds = %4
  %9 = tail call noalias ptr @calloc(i64 noundef %1, i64 noundef 8) #16
  %10 = icmp eq ptr %9, null
  br i1 %10, label %18, label %11

11:                                               ; preds = %8
  %12 = getelementptr inbounds nuw i8, ptr %0, i64 16
  %13 = load ptr, ptr %12, align 8, !tbaa !11
  %.not = icmp eq ptr %13, null
  br i1 %.not, label %17, label %14

14:                                               ; preds = %11
  %15 = shl nuw nsw i64 %6, 3
  tail call void @llvm.memcpy.p0.p0.i64(ptr nonnull align 8 %9, ptr nonnull align 8 %13, i64 %15, i1 false)
  tail call void @mbedtls_platform_zeroize(ptr noundef nonnull %13, i64 noundef %15)
  %16 = load ptr, ptr %12, align 8, !tbaa !11
  tail call void @free(ptr noundef %16) #15
  br label %17

17:                                               ; preds = %14, %11
  store i64 %1, ptr %5, align 8, !tbaa !12
  store ptr %9, ptr %12, align 8, !tbaa !11
  br label %18

18:                                               ; preds = %4, %17, %8, %2
  %.0 = phi i32 [ -16, %2 ], [ -16, %8 ], [ 0, %17 ], [ 0, %4 ]
  ret i32 %.0
}